target datalayout = "e-m:e-p270:32:32-p271:32:32-p272:64:64-i64:64-i128:128-f80:128-n8:16:32:64-S128"
target triple = "x86_64-unknown-linux-gnu"

%"class.icu_75::UObject" = type { ptr }
%"class.icu_75::FilteredNormalizer2" = type { %"class.icu_75::Normalizer2", ptr, ptr }
%"class.icu_75::Normalizer2" = type { %"class.icu_75::UObject" }

; Function Attrs: mustprogress uwtable
define noundef signext i8 @_ZNK6icu_7519FilteredNormalizer216getDecompositionEiRNS_13UnicodeStringE(ptr noundef nonnull align 8 dereferenceable(24) %this, i32 noundef %c, ptr noundef nonnull align 8 dereferenceable(64) %decomposition) unnamed_addr #2 align 2 {
entry:
  %this.addr = alloca ptr, align 8
  %c.addr = alloca i32, align 4
  %decomposition.addr = alloca ptr, align 8
  store ptr %this, ptr %this.addr, align 8
  store i32 %c, ptr %c.addr, align 4
  store ptr %decomposition, ptr %decomposition.addr, align 8
  %this1 = load ptr, ptr %this.addr, align 8
  %set = getelementptr inbounds %"class.icu_75::FilteredNormalizer2", ptr %this1, i32 0, i32 2
  %0 = load ptr, ptr %set, align 8
  %1 = load i32, ptr %c.addr, align 4
  %call = call noundef signext i8 @_ZNK6icu_7510UnicodeSet8containsEi(ptr noundef nonnull align 8 dereferenceable(200) %0, i32 noundef %1)
  %tobool = icmp ne i8 %call, 0
  br i1 %tobool, label %land.rhs, label %land.end

land.rhs:                                         ; preds = %entry
  %norm2 = getelementptr inbounds %"class.icu_75::FilteredNormalizer2", ptr %this1, i32 0, i32 1
  %2 = load ptr, ptr %norm2, align 8
  %3 = load i32, ptr %c.addr, align 4
  %4 = load ptr, ptr %decomposition.addr, align 8
  %vtable = load ptr, ptr %2, align 8
  %vfn = getelementptr inbounds ptr, ptr %vtable, i64 7
  %5 = load ptr, ptr %vfn, align 8
  %call2 = call noundef signext i8 %5(ptr noundef nonnull align 8 dereferenceable(8) %2, i32 noundef %3, ptr noundef nonnull align 8 dereferenceable(64) %4)
  %tobool3 = icmp ne i8 %call2, 0
  br label %land.end

land.end:                                         ; preds = %land.rhs, %entry
  %6 = phi i1 [ false, %entry ], [ %tobool3, %land.rhs ]
  %conv = zext i1 %6 to i8
  ret i8 %conv
}